; Function Attrs: mustprogress uwtable
define void @_ZN13sentencepiece19SelfTestData_Sample12InternalSwapEPS0_(ptr noundef nonnull align 8 dereferenceable(40) %0, ptr noundef %1) local_unnamed_addr #3 align 2 {
  %3 = getelementptr inbounds nuw i8, ptr %0, i64 8
  %4 = getelementptr inbounds nuw i8, ptr %1, i64 8
  %5 = load ptr, ptr %3, align 8, !tbaa !3
  %6 = ptrtoint ptr %5 to i64
  %7 = and i64 %6, 1
  %.not = icmp eq i64 %7, 0
  %.pre = load ptr, ptr %4, align 8, !tbaa !3
  %8 = ptrtoint ptr %.pre to i64
  %9 = and i64 %8, 1
  %.not13 = icmp eq i64 %9, 0
  br i1 %.not, label %10, label %11

10:                                               ; preds = %2
  br i1 %.not13, label %_ZN6google8protobuf8internal16InternalMetadata4SwapINSt7__cxx1112basic_stringIcSt11char_traitsIcESaIcEEEEEvPS2_.exit, label %.thread

11:                                               ; preds = %2
  br i1 %.not13, label %15, label %.thread, !prof !144

.thread:                                          ; preds = %10, %11
  %12 = and i64 %8, -2
  %13 = inttoptr i64 %12 to ptr
  %14 = getelementptr inbounds nuw i8, ptr %13, i64 8
  br label %_ZN6google8protobuf8internal16InternalMetadata22mutable_unknown_fieldsINSt7__cxx1112basic_stringIcSt11char_traitsIcESaIcEEEEEPT_v.exit.i

15:                                               ; preds = %11
  %16 = tail call noundef ptr @_ZN6google8protobuf8internal16InternalMetadata27mutable_unknown_fields_slowINSt7__cxx1112basic_stringIcSt11char_traitsIcESaIcEEEEEPT_v(ptr noundef nonnull align 8 dereferenceable(8) %4)
  %.pre15 = load ptr, ptr %3, align 8, !tbaa !3
  %.pre16 = ptrtoint ptr %.pre15 to i64
  br label %_ZN6google8protobuf8internal16InternalMetadata22mutable_unknown_fieldsINSt7__cxx1112basic_stringIcSt11char_traitsIcESaIcEEEEEPT_v.exit.i

_ZN6google8protobuf8internal16InternalMetadata22mutable_unknown_fieldsINSt7__cxx1112basic_stringIcSt11char_traitsIcESaIcEEEEEPT_v.exit.i: ; preds = %15, %.thread
  %.pre-phi = phi i64 [ %.pre16, %15 ], [ %6, %.thread ]
  %.0.i.i = phi ptr [ %16, %15 ], [ %14, %.thread ]
  %17 = and i64 %.pre-phi, 1
  %.not.i = icmp eq i64 %17, 0
  br i1 %.not.i, label %22, label %18, !prof !72

18:                                               ; preds = %_ZN6google8protobuf8internal16InternalMetadata22mutable_unknown_fieldsINSt7__cxx1112basic_stringIcSt11char_traitsIcESaIcEEEEEPT_v.exit.i
  %19 = and i64 %.pre-phi, -2
  %20 = inttoptr i64 %19 to ptr
  %21 = getelementptr inbounds nuw i8, ptr %20, i64 8
  br label %_ZN6google8protobuf8internal16InternalMetadata6DoSwapINSt7__cxx1112basic_stringIcSt11char_traitsIcESaIcEEEEEvPT_.exit

22:                                               ; preds = %_ZN6google8protobuf8internal16InternalMetadata22mutable_unknown_fieldsINSt7__cxx1112basic_stringIcSt11char_traitsIcESaIcEEEEEPT_v.exit.i
  %23 = tail call noundef ptr @_ZN6google8protobuf8internal16InternalMetadata27mutable_unknown_fields_slowINSt7__cxx1112basic_stringIcSt11char_traitsIcESaIcEEEEEPT_v(ptr noundef nonnull align 8 dereferenceable(8) %3)
  br label %_ZN6google8protobuf8internal16InternalMetadata6DoSwapINSt7__cxx1112basic_stringIcSt11char_traitsIcESaIcEEEEEvPT_.exit

_ZN6google8protobuf8internal16InternalMetadata6DoSwapINSt7__cxx1112basic_stringIcSt11char_traitsIcESaIcEEEEEvPT_.exit: ; preds = %18, %22
  %.0.i.i6 = phi ptr [ %21, %18 ], [ %23, %22 ]
  tail call void @_ZNSt7__cxx1112basic_stringIcSt11char_traitsIcESaIcEE4swapERS4_(ptr noundef nonnull align 8 dereferenceable(32) %.0.i.i6, ptr noundef nonnull align 8 dereferenceable(32) %.0.i.i) #25
  br label %_ZN6google8protobuf8internal16InternalMetadata4SwapINSt7__cxx1112basic_stringIcSt11char_traitsIcESaIcEEEEEvPS2_.exit

_ZN6google8protobuf8internal16InternalMetadata4SwapINSt7__cxx1112basic_stringIcSt11char_traitsIcESaIcEEEEEvPS2_.exit: ; preds = %10, %_ZN6google8protobuf8internal16InternalMetadata6DoSwapINSt7__cxx1112basic_stringIcSt11char_traitsIcESaIcEEEEEvPT_.exit
  %24 = getelementptr inbounds nuw i8, ptr %0, i64 16
  %25 = getelementptr inbounds nuw i8, ptr %1, i64 16
  %26 = load i32, ptr %24, align 8, !tbaa !11
  %27 = load i32, ptr %25, align 4, !tbaa !11
  store i32 %27, ptr %24, align 8, !tbaa !11
  store i32 %26, ptr %25, align 4, !tbaa !11
  %28 = getelementptr inbounds nuw i8, ptr %0, i64 24
  %29 = getelementptr inbounds nuw i8, ptr %1, i64 24
  %.sroa.0.0.copyload.i = load ptr, ptr %28, align 8, !tbaa !75
  %30 = load i64, ptr %29, align 8, !tbaa !75
  store i64 %30, ptr %28, align 8, !tbaa !75
  store ptr %.sroa.0.0.copyload.i, ptr %29, align 8, !tbaa !75
  %31 = getelementptr inbounds nuw i8, ptr %1, i64 32
  %32 = getelementptr inbounds nuw i8, ptr %0, i64 32
  %.sroa.0.0.copyload.i12 = load ptr, ptr %32, align 8, !tbaa !75
  %33 = load i64, ptr %31, align 8, !tbaa !75
  store i64 %33, ptr %32, align 8, !tbaa !75
  store ptr %.sroa.0.0.copyload.i12, ptr %31, align 8, !tbaa !75
  ret void
}